ccopy_reg
_reconstructor
p0
(csklearn.linear_model.logistic
LogisticRegression
p1
c__builtin__
object
p2
Ntp3
Rp4
(dp5
S'C'
p6
L1000000000000000000L
sS'max_iter'
p7
I100
sS'verbose'
p8
I0
sS'intercept_scaling'
p9
I1
sS'dual'
p10
I00
sS'fit_intercept'
p11
I01
sS'classes_'
p12
cnumpy.core.multiarray
_reconstruct
p13
(cnumpy
ndarray
p14
(I0
tp15
S'b'
p16
tp17
Rp18
(I1
(L2L
tp19
cnumpy
dtype
p20
(S'f8'
p21
I0
I1
tp22
Rp23
(I3
S'<'
p24
NNNI-1
I-1
I0
tp25
bI00
S'\x00\x00\x00\x00\x00\x00\x00\x00\x00\x00\x00\x00\x00\x00\xf0?'
p26
tp27
bsS'solver'
p28
S'liblinear'
p29
sS'n_iter_'
p30
cnumpy.core.multiarray
scalar
p31
(g20
(S'i4'
p32
I0
I1
tp33
Rp34
(I3
S'<'
p35
NNNI-1
I-1
I0
tp36
bS'G\x00\x00\x00'
p37
tp38
Rp39
sS'penalty'
p40
S'l2'
p41
sS'multi_class'
p42
S'ovr'
p43
sS'random_state'
p44
NsS'tol'
p45
F1e-21
sS'coef_'
p46
g13
(g14
(I0
tp47
g16
tp48
Rp49
(I1
(L1L
L13L
tp50
g23
I01
S"\x88\x13aP\xc0\xe9\x1a@\xdas\x98\x03\xab\x81_\xc0$\xe2A\xc2Z\x9dZ@\xf0\r'\xfc\x9e\xab$@\xb5\xe4P\xb8r,\xc8@\x0b\x11w\x08\xc9\xfb\xdd?\x18\xb4\xad\xc2S\xdc\xc0\xc0\xbask\x0c\x91#\x12\xc0cf\xe2\xe49\r\xb1\xc0g\xf7\x142\x91g\x1c@\x7f\xa3NV\xa7\xde0\xc0\xfbaX\xd7}@\x03\xc0m\xa7\xab\xb2m\xde\x16@"
p51
tp52
bsS'intercept_'
p53
g13
(g14
(I0
tp54
g16
tp55
Rp56
(I1
(L1L
tp57
g23
I00
S'\tO$\x08k.\x84@'
p58
tp59
bsS'class_weight'
p60
S'auto'
p61
sb.